; ModuleID = '10/2353.c'
source_filename = "10/2353.c"
target datalayout = "e-m:e-p270:32:32-p271:32:32-p272:64:64-i64:64-f80:128-n8:16:32:64-S128"
target triple = "x86_64-pc-linux-gnu"

@.str = private unnamed_addr constant [4 x i8] c"%d\0A\00", align 1
@.str.1 = private unnamed_addr constant [3 x i8] c"%d\00", align 1

; Function Attrs: noinline nounwind uwtable
define dso_local i32 @main() #0 {
  %1 = alloca i32, align 4
  %2 = alloca i32, align 4
  %3 = alloca i32, align 4
  %4 = alloca [25 x [2 x i32]], align 16
  %5 = alloca i32, align 4
  store i32 0, i32* %1, align 4
  store i32 0, i32* %5, align 4
  %6 = call i32 (i8*, ...) @__isoc99_scanf(i8* getelementptr inbounds ([4 x i8], [4 x i8]* @.str, i64 0, i64 0), i32* %2)
  store i32 0, i32* %3, align 4
  br label %7

7:                                                ; preds = %17, %0
  %8 = load i32, i32* %3, align 4
  %9 = load i32, i32* %2, align 4
  %10 = icmp slt i32 %8, %9
  br i1 %10, label %11, label %20

11:                                               ; preds = %7
  %12 = load i32, i32* %3, align 4
  %13 = sext i32 %12 to i64
  %14 = getelementptr inbounds [25 x [2 x i32]], [25 x [2 x i32]]* %4, i64 0, i64 %13
  %15 = getelementptr inbounds [2 x i32], [2 x i32]* %14, i64 0, i64 0
  %16 = call i32 (i8*, ...) @__isoc99_scanf(i8* getelementptr inbounds ([3 x i8], [3 x i8]* @.str.1, i64 0, i64 0), i32* %15)
  br label %17

17:                                               ; preds = %11
  %18 = load i32, i32* %3, align 4
  %19 = add nsw i32 %18, 1
  store i32 %19, i32* %3, align 4
  br label %7

20:                                               ; preds = %7
  %21 = load i32, i32* %2, align 4
  %22 = getelementptr inbounds [25 x [2 x i32]], [25 x [2 x i32]]* %4, i64 0, i64 0
  call void @deal(i32 %21, [2 x i32]* %22)
  store i32 0, i32* %3, align 4
  br label %23

23:                                               ; preds = %42, %20
  %24 = load i32, i32* %3, align 4
  %25 = load i32, i32* %2, align 4
  %26 = icmp slt i32 %24, %25
  br i1 %26, label %27, label %45

27:                                               ; preds = %23
  %28 = load i32, i32* %3, align 4
  %29 = sext i32 %28 to i64
  %30 = getelementptr inbounds [25 x [2 x i32]], [25 x [2 x i32]]* %4, i64 0, i64 %29
  %31 = getelementptr inbounds [2 x i32], [2 x i32]* %30, i64 0, i64 1
  %32 = load i32, i32* %31, align 4
  %33 = load i32, i32* %5, align 4
  %34 = icmp sgt i32 %32, %33
  br i1 %34, label %35, label %41

35:                                               ; preds = %27
  %36 = load i32, i32* %3, align 4
  %37 = sext i32 %36 to i64
  %38 = getelementptr inbounds [25 x [2 x i32]], [25 x [2 x i32]]* %4, i64 0, i64 %37
  %39 = getelementptr inbounds [2 x i32], [2 x i32]* %38, i64 0, i64 1
  %40 = load i32, i32* %39, align 4
  store i32 %40, i32* %5, align 4
  br label %41

41:                                               ; preds = %35, %27
  br label %42

42:                                               ; preds = %41
  %43 = load i32, i32* %3, align 4
  %44 = add nsw i32 %43, 1
  store i32 %44, i32* %3, align 4
  br label %23

45:                                               ; preds = %23
  %46 = load i32, i32* %5, align 4
  %47 = call i32 (i8*, ...) @printf(i8* getelementptr inbounds ([3 x i8], [3 x i8]* @.str.1, i64 0, i64 0), i32 %46)
  ret i32 0
}

declare dso_local i32 @__isoc99_scanf(i8*, ...) #1

; Function Attrs: noinline nounwind uwtable
define dso_local void @deal(i32 %0, [2 x i32]* %1) #0 {
  %3 = alloca i32, align 4
  %4 = alloca [2 x i32]*, align 8
  %5 = alloca i32, align 4
  %6 = alloca i32, align 4
  %7 = alloca i32, align 4
  store i32 %0, i32* %3, align 4
  store [2 x i32]* %1, [2 x i32]** %4, align 8
  store i32 0, i32* %5, align 4
  br label %8

8:                                                ; preds = %59, %2
  %9 = load i32, i32* %5, align 4
  %10 = load i32, i32* %3, align 4
  %11 = icmp slt i32 %9, %10
  br i1 %11, label %12, label %62

12:                                               ; preds = %8
  store i32 0, i32* %7, align 4
  store i32 0, i32* %6, align 4
  br label %13

13:                                               ; preds = %48, %12
  %14 = load i32, i32* %6, align 4
  %15 = load i32, i32* %5, align 4
  %16 = icmp slt i32 %14, %15
  br i1 %16, label %17, label %51

17:                                               ; preds = %13
  %18 = load [2 x i32]*, [2 x i32]** %4, align 8
  %19 = load i32, i32* %6, align 4
  %20 = sext i32 %19 to i64
  %21 = getelementptr inbounds [2 x i32], [2 x i32]* %18, i64 %20
  %22 = getelementptr inbounds [2 x i32], [2 x i32]* %21, i64 0, i64 0
  %23 = load i32, i32* %22, align 4
  %24 = load [2 x i32]*, [2 x i32]** %4, align 8
  %25 = load i32, i32* %5, align 4
  %26 = sext i32 %25 to i64
  %27 = getelementptr inbounds [2 x i32], [2 x i32]* %24, i64 %26
  %28 = getelementptr inbounds [2 x i32], [2 x i32]* %27, i64 0, i64 0
  %29 = load i32, i32* %28, align 4
  %30 = icmp sge i32 %23, %29
  br i1 %30, label %31, label %47

31:                                               ; preds = %17
  %32 = load [2 x i32]*, [2 x i32]** %4, align 8
  %33 = load i32, i32* %6, align 4
  %34 = sext i32 %33 to i64
  %35 = getelementptr inbounds [2 x i32], [2 x i32]* %32, i64 %34
  %36 = getelementptr inbounds [2 x i32], [2 x i32]* %35, i64 0, i64 1
  %37 = load i32, i32* %36, align 4
  %38 = load i32, i32* %7, align 4
  %39 = icmp sgt i32 %37, %38
  br i1 %39, label %40, label %47

40:                                               ; preds = %31
  %41 = load [2 x i32]*, [2 x i32]** %4, align 8
  %42 = load i32, i32* %6, align 4
  %43 = sext i32 %42 to i64
  %44 = getelementptr inbounds [2 x i32], [2 x i32]* %41, i64 %43
  %45 = getelementptr inbounds [2 x i32], [2 x i32]* %44, i64 0, i64 1
  %46 = load i32, i32* %45, align 4
  store i32 %46, i32* %7, align 4
  br label %47

47:                                               ; preds = %40, %31, %17
  br label %48

48:                                               ; preds = %47
  %49 = load i32, i32* %6, align 4
  %50 = add nsw i32 %49, 1
  store i32 %50, i32* %6, align 4
  br label %13

51:                                               ; preds = %13
  %52 = load i32, i32* %7, align 4
  %53 = add nsw i32 %52, 1
  %54 = load [2 x i32]*, [2 x i32]** %4, align 8
  %55 = load i32, i32* %5, align 4
  %56 = sext i32 %55 to i64
  %57 = getelementptr inbounds [2 x i32], [2 x i32]* %54, i64 %56
  %58 = getelementptr inbounds [2 x i32], [2 x i32]* %57, i64 0, i64 1
  store i32 %53, i32* %58, align 4
  br label %59

59:                                               ; preds = %51
  %60 = load i32, i32* %5, align 4
  %61 = add nsw i32 %60, 1
  store i32 %61, i32* %5, align 4
  br label %8

62:                                               ; preds = %8
  ret void
}

declare dso_local i32 @printf(i8*, ...) #1


!llvm.module.flags = !{!0}
!llvm.ident = !{!1}

!0 = !{i32 1, !"wchar_size", i32 4}
!1 = !{!"clang version 10.0.0-4ubuntu1 "}
